; Function Attrs: mustprogress uwtable
define noundef ptr @_ZN8nanobind6detail13obj_iter_nextEP7_object(ptr noundef %0) local_unnamed_addr #15 {
  %2 = tail call ptr @PyIter_Next(ptr noundef %0)
  %.not = icmp eq ptr %2, null
  br i1 %.not, label %3, label %6

3:                                                ; preds = %1
  %4 = tail call ptr @PyErr_Occurred()
  %.not3 = icmp eq ptr %4, null
  br i1 %.not3, label %6, label %5

5:                                                ; preds = %3
  tail call void @_ZN8nanobind6detail18raise_python_errorEv() #28
  unreachable

6:                                                ; preds = %3, %1
  ret ptr %2
}